target datalayout = "e-m:e-p270:32:32-p271:32:32-p272:64:64-i64:64-i128:128-f80:128-n8:16:32:64-S128"
target triple = "x86_64-pc-linux-gnu"

%class.UPerfTest = type { ptr, i32, ptr, ptr, ptr, ptr, ptr, i8, ptr, ptr, i32, ptr, i32, i8, ptr, i32, i8, i8, i32, i32, i32, ptr, ptr, ptr }

; Function Attrs: mustprogress nounwind uwtable
define void @_ZN9UPerfTestD2Ev(ptr noundef nonnull align 8 dereferenceable(160) %0) unnamed_addr #0 align 2 personality ptr @__gxx_personality_v0 {
  %2 = alloca ptr, align 8
  store ptr %0, ptr %2, align 8, !tbaa !8
  %3 = load ptr, ptr %2, align 8
  store ptr getelementptr inbounds inrange(-16, 48) ({ [8 x ptr] }, ptr @_ZTV9UPerfTest, i32 0, i32 0, i32 2), ptr %3, align 8, !tbaa !16
  %4 = getelementptr inbounds nuw %class.UPerfTest, ptr %3, i32 0, i32 11
  %5 = load ptr, ptr %4, align 8, !tbaa !31
  %6 = icmp eq ptr %5, null
  br i1 %6, label %8, label %7

7:                                                ; preds = %1
  call void @_ZdaPv(ptr noundef %5) #21
  br label %8

8:                                                ; preds = %7, %1
  %9 = getelementptr inbounds nuw %class.UPerfTest, ptr %3, i32 0, i32 14
  %10 = load ptr, ptr %9, align 8, !tbaa !34
  %11 = icmp ne ptr %10, null
  br i1 %11, label %12, label %16

12:                                               ; preds = %8
  %13 = getelementptr inbounds nuw %class.UPerfTest, ptr %3, i32 0, i32 14
  %14 = load ptr, ptr %13, align 8, !tbaa !34
  invoke void @uprv_free_77(ptr noundef %14)
          to label %15 unwind label %28

15:                                               ; preds = %12
  br label %16

16:                                               ; preds = %15, %8
  %17 = getelementptr inbounds nuw %class.UPerfTest, ptr %3, i32 0, i32 4
  %18 = load ptr, ptr %17, align 8, !tbaa !44
  %19 = icmp ne ptr %18, null
  br i1 %19, label %20, label %24

20:                                               ; preds = %16
  %21 = getelementptr inbounds nuw %class.UPerfTest, ptr %3, i32 0, i32 4
  %22 = load ptr, ptr %21, align 8, !tbaa !44
  invoke void @uprv_free_77(ptr noundef %22)
          to label %23 unwind label %28

23:                                               ; preds = %20
  br label %24

24:                                               ; preds = %23, %16
  %25 = getelementptr inbounds nuw %class.UPerfTest, ptr %3, i32 0, i32 5
  %26 = load ptr, ptr %25, align 8, !tbaa !26
  invoke void @ucbuf_close(ptr noundef %26)
          to label %27 unwind label %28

27:                                               ; preds = %24
  ret void

28:                                               ; preds = %24, %20, %12
  %29 = landingpad { ptr, i32 }
          catch ptr null
  %30 = extractvalue { ptr, i32 } %29, 0
  call void @__clang_call_terminate(ptr %30) #16
  unreachable
}