; Function Attrs: mustprogress nounwind uwtable
define void @_ZN9UPerfTestD2Ev(ptr noundef nonnull align 8 captures(none) dereferenceable(160) initializes((0, 8)) %0) unnamed_addr #16 align 2 personality ptr @__gxx_personality_v0 {
  store ptr getelementptr inbounds nuw inrange(-16, 48) (i8, ptr @_ZTV9UPerfTest, i64 16), ptr %0, align 8, !tbaa !3
  %2 = getelementptr inbounds nuw i8, ptr %0, i64 88
  %3 = load ptr, ptr %2, align 8, !tbaa !25
  %4 = icmp eq ptr %3, null
  br i1 %4, label %6, label %5

5:                                                ; preds = %1
  tail call void @_ZdaPv(ptr noundef nonnull %3) #26
  br label %6

6:                                                ; preds = %5, %1
  %7 = getelementptr inbounds nuw i8, ptr %0, i64 104
  %8 = load ptr, ptr %7, align 8, !tbaa !47
  %.not = icmp eq ptr %8, null
  br i1 %.not, label %10, label %9

9:                                                ; preds = %6
  invoke void @uprv_free_77(ptr noundef nonnull %8)
          to label %10 unwind label %18

10:                                               ; preds = %9, %6
  %11 = getelementptr inbounds nuw i8, ptr %0, i64 32
  %12 = load ptr, ptr %11, align 8, !tbaa !32
  %.not3 = icmp eq ptr %12, null
  br i1 %.not3, label %14, label %13

13:                                               ; preds = %10
  invoke void @uprv_free_77(ptr noundef nonnull %12)
          to label %14 unwind label %18

14:                                               ; preds = %13, %10
  %15 = getelementptr inbounds nuw i8, ptr %0, i64 40
  %16 = load ptr, ptr %15, align 8, !tbaa !20
  invoke void @ucbuf_close(ptr noundef %16)
          to label %17 unwind label %18

17:                                               ; preds = %14
  ret void

18:                                               ; preds = %14, %13, %9
  %19 = landingpad { ptr, i32 }
          catch ptr null
  %20 = extractvalue { ptr, i32 } %19, 0
  tail call void @__clang_call_terminate(ptr %20) #22
  unreachable
}